target datalayout = "e-m:e-p270:32:32-p271:32:32-p272:64:64-i64:64-i128:128-f80:128-n8:16:32:64-S128"
target triple = "x86_64-pc-linux-gnu"

; Function Attrs: inlinehint nounwind uwtable
define internal i64 @Abc_Tt6Stretch(i64 noundef %0, i32 noundef %1) #2 {
  %3 = alloca i64, align 8
  %4 = alloca i32, align 4
  store i64 %0, ptr %3, align 8, !tbaa !14
  store i32 %1, ptr %4, align 4, !tbaa !3
  %5 = load i32, ptr %4, align 4, !tbaa !3
  %6 = icmp eq i32 %5, 0
  br i1 %6, label %7, label %16

7:                                                ; preds = %2
  %8 = load i32, ptr %4, align 4, !tbaa !3
  %9 = add nsw i32 %8, 1
  store i32 %9, ptr %4, align 4, !tbaa !3
  %10 = load i64, ptr %3, align 8, !tbaa !14
  %11 = and i64 %10, 1
  %12 = load i64, ptr %3, align 8, !tbaa !14
  %13 = and i64 %12, 1
  %14 = shl i64 %13, 1
  %15 = or i64 %11, %14
  store i64 %15, ptr %3, align 8, !tbaa !14
  br label %16

16:                                               ; preds = %7, %2
  %17 = load i32, ptr %4, align 4, !tbaa !3
  %18 = icmp eq i32 %17, 1
  br i1 %18, label %19, label %28

19:                                               ; preds = %16
  %20 = load i32, ptr %4, align 4, !tbaa !3
  %21 = add nsw i32 %20, 1
  store i32 %21, ptr %4, align 4, !tbaa !3
  %22 = load i64, ptr %3, align 8, !tbaa !14
  %23 = and i64 %22, 3
  %24 = load i64, ptr %3, align 8, !tbaa !14
  %25 = and i64 %24, 3
  %26 = shl i64 %25, 2
  %27 = or i64 %23, %26
  store i64 %27, ptr %3, align 8, !tbaa !14
  br label %28

28:                                               ; preds = %19, %16
  %29 = load i32, ptr %4, align 4, !tbaa !3
  %30 = icmp eq i32 %29, 2
  br i1 %30, label %31, label %40

31:                                               ; preds = %28
  %32 = load i32, ptr %4, align 4, !tbaa !3
  %33 = add nsw i32 %32, 1
  store i32 %33, ptr %4, align 4, !tbaa !3
  %34 = load i64, ptr %3, align 8, !tbaa !14
  %35 = and i64 %34, 15
  %36 = load i64, ptr %3, align 8, !tbaa !14
  %37 = and i64 %36, 15
  %38 = shl i64 %37, 4
  %39 = or i64 %35, %38
  store i64 %39, ptr %3, align 8, !tbaa !14
  br label %40

40:                                               ; preds = %31, %28
  %41 = load i32, ptr %4, align 4, !tbaa !3
  %42 = icmp eq i32 %41, 3
  br i1 %42, label %43, label %52

43:                                               ; preds = %40
  %44 = load i32, ptr %4, align 4, !tbaa !3
  %45 = add nsw i32 %44, 1
  store i32 %45, ptr %4, align 4, !tbaa !3
  %46 = load i64, ptr %3, align 8, !tbaa !14
  %47 = and i64 %46, 255
  %48 = load i64, ptr %3, align 8, !tbaa !14
  %49 = and i64 %48, 255
  %50 = shl i64 %49, 8
  %51 = or i64 %47, %50
  store i64 %51, ptr %3, align 8, !tbaa !14
  br label %52

52:                                               ; preds = %43, %40
  %53 = load i32, ptr %4, align 4, !tbaa !3
  %54 = icmp eq i32 %53, 4
  br i1 %54, label %55, label %64

55:                                               ; preds = %52
  %56 = load i32, ptr %4, align 4, !tbaa !3
  %57 = add nsw i32 %56, 1
  store i32 %57, ptr %4, align 4, !tbaa !3
  %58 = load i64, ptr %3, align 8, !tbaa !14
  %59 = and i64 %58, 65535
  %60 = load i64, ptr %3, align 8, !tbaa !14
  %61 = and i64 %60, 65535
  %62 = shl i64 %61, 16
  %63 = or i64 %59, %62
  store i64 %63, ptr %3, align 8, !tbaa !14
  br label %64

64:                                               ; preds = %55, %52
  %65 = load i32, ptr %4, align 4, !tbaa !3
  %66 = icmp eq i32 %65, 5
  br i1 %66, label %67, label %76

67:                                               ; preds = %64
  %68 = load i32, ptr %4, align 4, !tbaa !3
  %69 = add nsw i32 %68, 1
  store i32 %69, ptr %4, align 4, !tbaa !3
  %70 = load i64, ptr %3, align 8, !tbaa !14
  %71 = and i64 %70, 4294967295
  %72 = load i64, ptr %3, align 8, !tbaa !14
  %73 = and i64 %72, 4294967295
  %74 = shl i64 %73, 32
  %75 = or i64 %71, %74
  store i64 %75, ptr %3, align 8, !tbaa !14
  br label %76

76:                                               ; preds = %67, %64
  %77 = load i64, ptr %3, align 8, !tbaa !14
  ret i64 %77
}