; Function Attrs: inlinehint mustprogress nofree norecurse nosync nounwind willreturn memory(none) uwtable
define internal fastcc i64 @Abc_Tt6Stretch(i64 noundef %0, i32 noundef %1) unnamed_addr #8 {
  %3 = icmp eq i32 %1, 0
  %4 = trunc i64 %0 to i1
  %5 = select i1 %4, i64 3, i64 0
  %6 = icmp ult i32 %1, 2
  %7 = and i64 %0, 3
  %8 = select i1 %3, i64 %5, i64 %7
  %9 = mul nuw nsw i64 %8, 5
  %.126 = select i1 %6, i64 %9, i64 %0
  %.1 = tail call i32 @llvm.umax.i32(i32 %1, i32 2)
  %10 = icmp ult i32 %1, 3
  %11 = and i64 %.126, 15
  %12 = mul nuw nsw i64 %11, 17
  %.227 = select i1 %10, i64 %12, i64 %0
  %.2 = select i1 %10, i32 3, i32 %.1
  %13 = icmp eq i32 %.2, 3
  %14 = and i64 %.227, 255
  %15 = mul nuw nsw i64 %14, 257
  %.328 = select i1 %13, i64 %15, i64 %.227
  %.3 = select i1 %13, i32 4, i32 %.2
  %16 = icmp eq i32 %.3, 4
  %17 = and i64 %.328, 65535
  %18 = mul nuw nsw i64 %17, 65537
  %.429 = select i1 %16, i64 %18, i64 %.328
  %19 = and i32 %.3, -2
  %20 = icmp eq i32 %19, 4
  %21 = and i64 %.429, 4294967295
  %22 = mul nuw i64 %21, 4294967297
  %.5 = select i1 %20, i64 %22, i64 %.429
  ret i64 %.5
}